target datalayout = "e-m:e-p270:32:32-p271:32:32-p272:64:64-i64:64-i128:128-f80:128-n8:16:32:64-S128"
target triple = "x86_64-pc-linux-gnu"

%struct._asn1_ctx_t = type { i32, i32, i8, ptr, ptr, ptr, ptr, ptr, %struct.anon.1, %struct.anon.4, %struct.anon.5, ptr }
%struct.anon.1 = type { i32, i8, i8, i8, ptr, ptr, i32, i32, ptr, ptr, ptr, %union.anon }
%union.anon = type { %struct.anon.2 }
%struct.anon.2 = type { ptr }
%struct.anon.4 = type { ptr, ptr, ptr }
%struct.anon.5 = type { i32, i8, ptr, i32, i32, ptr, ptr, ptr, %union.anon.6 }
%union.anon.6 = type { %struct.anon.7 }
%struct.anon.7 = type { ptr }

@hf_camel_calledAddressValue = internal global i32 0, align 4
@hf_camel_callingAddressValue = internal global i32 0, align 4
@hf_camel_dTMFDigitsCompleted = internal global i32 0, align 4
@hf_camel_dTMFDigitsTimeOut = internal global i32 0, align 4
@hf_camel_number = internal global i32 0, align 4
@hf_camel_digitsResponse = internal global i32 0, align 4
@hf_camel_correlationID = internal global i32 0, align 4
@hf_camel_assistingSSPIPRoutingAddress = internal global i32 0, align 4
@hf_camel_additionalCallingPartyNumber = internal global i32 0, align 4
@ett_camel_additionalcallingpartynumber = internal global i32 0, align 4
@ett_camel_calledAddressValue = internal global i32 0, align 4
@ett_camel_callingAddressValue = internal global i32 0, align 4
@ett_camel_assistingSSPIPRoutingAddress = internal global i32 0, align 4
@ett_camel_correlationID = internal global i32 0, align 4
@ett_camel_dTMFDigitsCompleted = internal global i32 0, align 4
@ett_camel_dTMFDigitsTimeOut = internal global i32 0, align 4
@ett_camel_number = internal global i32 0, align 4
@ett_camel_digitsResponse = internal global i32 0, align 4
@opcode = internal global i32 0, align 4

; Function Attrs: null_pointer_is_valid sspstrong uwtable
define internal i32 @dissect_camel_Digits(i1 noundef zeroext %0, ptr noundef %1, i32 noundef %2, ptr noundef %3, ptr noundef %4, i32 noundef %5) #0 {
  %7 = alloca i32, align 4
  %8 = alloca i8, align 1
  %9 = alloca ptr, align 8
  %10 = alloca i32, align 4
  %11 = alloca ptr, align 8
  %12 = alloca ptr, align 8
  %13 = alloca i32, align 4
  %14 = alloca ptr, align 8
  %15 = alloca ptr, align 8
  %16 = alloca i32, align 4
  %17 = alloca i8, align 1
  %18 = alloca i32, align 4
  %19 = zext i1 %0 to i8
  store i8 %19, ptr %8, align 1
  store ptr %1, ptr %9, align 8
  store i32 %2, ptr %10, align 4
  store ptr %3, ptr %11, align 8
  store ptr %4, ptr %12, align 8
  store i32 %5, ptr %13, align 4
  call void @llvm.lifetime.start.p0(i64 8, ptr %14) #11
  call void @llvm.lifetime.start.p0(i64 8, ptr %15) #11
  call void @llvm.lifetime.start.p0(i64 4, ptr %16) #11
  store i32 -1, ptr %16, align 4
  call void @llvm.lifetime.start.p0(i64 1, ptr %17) #11
  store i8 0, ptr %17, align 1
  %20 = load i8, ptr %8, align 1, !range !6, !noundef !7
  %21 = trunc i8 %20 to i1
  %22 = load ptr, ptr %11, align 8
  %23 = load ptr, ptr %12, align 8
  %24 = load ptr, ptr %9, align 8
  %25 = load i32, ptr %10, align 4
  %26 = load i32, ptr %13, align 4
  %27 = call i32 @dissect_ber_octet_string(i1 noundef zeroext %21, ptr noundef %22, ptr noundef %23, ptr noundef %24, i32 noundef %25, i32 noundef %26, ptr noundef %14)
  store i32 %27, ptr %10, align 4
  %28 = load ptr, ptr %14, align 8
  %29 = icmp ne ptr %28, null
  br i1 %29, label %32, label %30

30:                                               ; preds = %6
  %31 = load i32, ptr %10, align 4
  store i32 %31, ptr %7, align 4
  store i32 1, ptr %18, align 4
  br label %118

32:                                               ; preds = %6
  %33 = load i32, ptr %13, align 4
  %34 = load i32, ptr @hf_camel_calledAddressValue, align 4
  %35 = icmp eq i32 %33, %34
  br i1 %35, label %36, label %38

36:                                               ; preds = %32
  %37 = load i32, ptr @ett_camel_calledAddressValue, align 4
  store i32 %37, ptr %16, align 4
  br label %99

38:                                               ; preds = %32
  %39 = load i32, ptr %13, align 4
  %40 = load i32, ptr @hf_camel_callingAddressValue, align 4
  %41 = icmp eq i32 %39, %40
  br i1 %41, label %42, label %44

42:                                               ; preds = %38
  %43 = load i32, ptr @ett_camel_callingAddressValue, align 4
  store i32 %43, ptr %16, align 4
  br label %98

44:                                               ; preds = %38
  %45 = load i32, ptr %13, align 4
  %46 = load i32, ptr @hf_camel_additionalCallingPartyNumber, align 4
  %47 = icmp eq i32 %45, %46
  br i1 %47, label %48, label %50

48:                                               ; preds = %44
  %49 = load i32, ptr @ett_camel_additionalcallingpartynumber, align 4
  store i32 %49, ptr %16, align 4
  br label %97

50:                                               ; preds = %44
  %51 = load i32, ptr %13, align 4
  %52 = load i32, ptr @hf_camel_assistingSSPIPRoutingAddress, align 4
  %53 = icmp eq i32 %51, %52
  br i1 %53, label %54, label %56

54:                                               ; preds = %50
  %55 = load i32, ptr @ett_camel_assistingSSPIPRoutingAddress, align 4
  store i32 %55, ptr %16, align 4
  br label %96

56:                                               ; preds = %50
  %57 = load i32, ptr %13, align 4
  %58 = load i32, ptr @hf_camel_correlationID, align 4
  %59 = icmp eq i32 %57, %58
  br i1 %59, label %60, label %67

60:                                               ; preds = %56
  %61 = load i32, ptr @ett_camel_correlationID, align 4
  store i32 %61, ptr %16, align 4
  %62 = load i32, ptr @opcode, align 4
  %63 = icmp eq i32 %62, 17
  %64 = select i1 %63, i32 1, i32 0
  %65 = icmp ne i32 %64, 0
  %66 = zext i1 %65 to i8
  store i8 %66, ptr %17, align 1
  br label %95

67:                                               ; preds = %56
  %68 = load i32, ptr %13, align 4
  %69 = load i32, ptr @hf_camel_dTMFDigitsCompleted, align 4
  %70 = icmp eq i32 %68, %69
  br i1 %70, label %71, label %73

71:                                               ; preds = %67
  %72 = load i32, ptr @ett_camel_dTMFDigitsCompleted, align 4
  store i32 %72, ptr %16, align 4
  store i8 1, ptr %17, align 1
  br label %94

73:                                               ; preds = %67
  %74 = load i32, ptr %13, align 4
  %75 = load i32, ptr @hf_camel_dTMFDigitsTimeOut, align 4
  %76 = icmp eq i32 %74, %75
  br i1 %76, label %77, label %79

77:                                               ; preds = %73
  %78 = load i32, ptr @ett_camel_dTMFDigitsTimeOut, align 4
  store i32 %78, ptr %16, align 4
  store i8 1, ptr %17, align 1
  br label %93

79:                                               ; preds = %73
  %80 = load i32, ptr %13, align 4
  %81 = load i32, ptr @hf_camel_number, align 4
  %82 = icmp eq i32 %80, %81
  br i1 %82, label %83, label %85

83:                                               ; preds = %79
  %84 = load i32, ptr @ett_camel_number, align 4
  store i32 %84, ptr %16, align 4
  store i8 1, ptr %17, align 1
  br label %92

85:                                               ; preds = %79
  %86 = load i32, ptr %13, align 4
  %87 = load i32, ptr @hf_camel_digitsResponse, align 4
  %88 = icmp eq i32 %86, %87
  br i1 %88, label %89, label %91

89:                                               ; preds = %85
  %90 = load i32, ptr @ett_camel_digitsResponse, align 4
  store i32 %90, ptr %16, align 4
  store i8 1, ptr %17, align 1
  br label %91

91:                                               ; preds = %89, %85
  br label %92

92:                                               ; preds = %91, %83
  br label %93

93:                                               ; preds = %92, %77
  br label %94

94:                                               ; preds = %93, %71
  br label %95

95:                                               ; preds = %94, %60
  br label %96

96:                                               ; preds = %95, %54
  br label %97

97:                                               ; preds = %96, %48
  br label %98

98:                                               ; preds = %97, %42
  br label %99

99:                                               ; preds = %98, %36
  %100 = load ptr, ptr %11, align 8
  %101 = getelementptr inbounds nuw %struct._asn1_ctx_t, ptr %100, i32 0, i32 4
  %102 = load ptr, ptr %101, align 8
  %103 = load i32, ptr %16, align 4
  %104 = call ptr @proto_item_add_subtree(ptr noundef %102, i32 noundef %103)
  store ptr %104, ptr %15, align 8
  %105 = load i8, ptr %17, align 1, !range !6, !noundef !7
  %106 = trunc i8 %105 to i1
  br i1 %106, label %107, label %110

107:                                              ; preds = %99
  %108 = load ptr, ptr %14, align 8
  %109 = load ptr, ptr %15, align 8
  call void @dissect_isup_generic_digits_parameter(ptr noundef %108, ptr noundef %109, ptr noundef null)
  br label %116

110:                                              ; preds = %99
  %111 = load ptr, ptr %14, align 8
  %112 = load ptr, ptr %11, align 8
  %113 = getelementptr inbounds nuw %struct._asn1_ctx_t, ptr %112, i32 0, i32 3
  %114 = load ptr, ptr %113, align 8
  %115 = load ptr, ptr %15, align 8
  call void @dissect_isup_generic_number_parameter(ptr noundef %111, ptr noundef %114, ptr noundef %115, ptr noundef null)
  br label %116

116:                                              ; preds = %110, %107
  %117 = load i32, ptr %10, align 4
  store i32 %117, ptr %7, align 4
  store i32 1, ptr %18, align 4
  br label %118

118:                                              ; preds = %116, %30
  call void @llvm.lifetime.end.p0(i64 1, ptr %17) #11
  call void @llvm.lifetime.end.p0(i64 4, ptr %16) #11
  call void @llvm.lifetime.end.p0(i64 8, ptr %15) #11
  call void @llvm.lifetime.end.p0(i64 8, ptr %14) #11
  %119 = load i32, ptr %7, align 4
  ret i32 %119
}