; Function Attrs: null_pointer_is_valid sspstrong uwtable
define internal i32 @dissect_camel_Digits(i1 noundef zeroext %0, ptr noundef %1, i32 noundef %2, ptr noundef %3, ptr noundef %4, i32 noundef %5) #0 {
  %7 = alloca ptr, align 8
  call void @llvm.lifetime.start.p0(i64 8, ptr nonnull %7) #12
  %8 = call i32 @dissect_ber_octet_string(i1 noundef zeroext %0, ptr noundef %3, ptr noundef %4, ptr noundef %1, i32 noundef %2, i32 noundef %5, ptr noundef nonnull %7)
  %9 = load ptr, ptr %7, align 8
  %.not = icmp eq ptr %9, null
  br i1 %.not, label %62, label %10

10:                                               ; preds = %6
  %11 = load i32, ptr @hf_camel_calledAddressValue, align 4
  %12 = icmp eq i32 %5, %11
  br i1 %12, label %.thread, label %13

13:                                               ; preds = %10
  %14 = load i32, ptr @hf_camel_callingAddressValue, align 4
  %15 = icmp eq i32 %5, %14
  br i1 %15, label %.thread, label %16

16:                                               ; preds = %13
  %17 = load i32, ptr @hf_camel_additionalCallingPartyNumber, align 4
  %18 = icmp eq i32 %5, %17
  br i1 %18, label %.thread, label %19

19:                                               ; preds = %16
  %20 = load i32, ptr @hf_camel_assistingSSPIPRoutingAddress, align 4
  %21 = icmp eq i32 %5, %20
  br i1 %21, label %.thread, label %22

22:                                               ; preds = %19
  %23 = load i32, ptr @hf_camel_correlationID, align 4
  %24 = icmp eq i32 %5, %23
  br i1 %24, label %25, label %32

25:                                               ; preds = %22
  %26 = load i32, ptr @ett_camel_correlationID, align 4
  %27 = load i32, ptr @opcode, align 4
  %28 = icmp eq i32 %27, 17
  %29 = getelementptr inbounds nuw i8, ptr %3, i64 24
  %30 = load ptr, ptr %29, align 8
  %31 = call ptr @proto_item_add_subtree(ptr noundef %30, i32 noundef %26)
  br i1 %28, label %54, label %57

32:                                               ; preds = %22
  %33 = load i32, ptr @hf_camel_dTMFDigitsCompleted, align 4
  %34 = icmp eq i32 %5, %33
  br i1 %34, label %.thread31, label %35

35:                                               ; preds = %32
  %36 = load i32, ptr @hf_camel_dTMFDigitsTimeOut, align 4
  %37 = icmp eq i32 %5, %36
  br i1 %37, label %.thread31, label %38

38:                                               ; preds = %35
  %39 = load i32, ptr @hf_camel_number, align 4
  %40 = icmp eq i32 %5, %39
  br i1 %40, label %.thread31, label %47

.thread:                                          ; preds = %19, %16, %13, %10
  %.023.ph.in = phi ptr [ @ett_camel_calledAddressValue, %10 ], [ @ett_camel_callingAddressValue, %13 ], [ @ett_camel_additionalcallingpartynumber, %16 ], [ @ett_camel_assistingSSPIPRoutingAddress, %19 ]
  %.023.ph = load i32, ptr %.023.ph.in, align 4
  %41 = getelementptr inbounds nuw i8, ptr %3, i64 24
  %42 = load ptr, ptr %41, align 8
  %43 = call ptr @proto_item_add_subtree(ptr noundef %42, i32 noundef %.023.ph)
  br label %57

.thread31:                                        ; preds = %38, %35, %32
  %.023.ph30.in = phi ptr [ @ett_camel_dTMFDigitsCompleted, %32 ], [ @ett_camel_dTMFDigitsTimeOut, %35 ], [ @ett_camel_number, %38 ]
  %.023.ph30 = load i32, ptr %.023.ph30.in, align 4
  %44 = getelementptr inbounds nuw i8, ptr %3, i64 24
  %45 = load ptr, ptr %44, align 8
  %46 = call ptr @proto_item_add_subtree(ptr noundef %45, i32 noundef %.023.ph30)
  br label %54

47:                                               ; preds = %38
  %48 = load i32, ptr @hf_camel_digitsResponse, align 4
  %49 = icmp eq i32 %5, %48
  %50 = load i32, ptr @ett_camel_digitsResponse, align 4
  %spec.select = select i1 %49, i32 %50, i32 -1
  %51 = getelementptr inbounds nuw i8, ptr %3, i64 24
  %52 = load ptr, ptr %51, align 8
  %53 = call ptr @proto_item_add_subtree(ptr noundef %52, i32 noundef %spec.select)
  br i1 %49, label %54, label %57

54:                                               ; preds = %25, %.thread31, %47
  %55 = phi ptr [ %46, %.thread31 ], [ %53, %47 ], [ %31, %25 ]
  %56 = load ptr, ptr %7, align 8
  call void @dissect_isup_generic_digits_parameter(ptr noundef %56, ptr noundef %55, ptr noundef null)
  br label %62

57:                                               ; preds = %25, %.thread, %47
  %58 = phi ptr [ %43, %.thread ], [ %53, %47 ], [ %31, %25 ]
  %59 = load ptr, ptr %7, align 8
  %60 = getelementptr inbounds nuw i8, ptr %3, i64 16
  %61 = load ptr, ptr %60, align 8
  call void @dissect_isup_generic_number_parameter(ptr noundef %59, ptr noundef %61, ptr noundef %58, ptr noundef null)
  br label %62

62:                                               ; preds = %54, %57, %6
  call void @llvm.lifetime.end.p0(i64 8, ptr nonnull %7) #12
  ret i32 %8
}